target datalayout = "e-m:e-p270:32:32-p271:32:32-p272:64:64-i64:64-i128:128-f80:128-n8:16:32:64-S128"
target triple = "x86_64-pc-linux-gnu"

@.str.14 = private unnamed_addr constant [36 x i8] c"../openssl/test/verify_extra_test.c\00", align 1
@req_f = internal global ptr null, align 8
@.str.48 = private unnamed_addr constant [14 x i8] c"this is an ID\00", align 1
@.str.49 = private unnamed_addr constant [3 x i8] c"v2\00", align 1
@.str.50 = private unnamed_addr constant [29 x i8] c"ASN1_OCTET_STRING_cmp(v, v2)\00", align 1
@.str.51 = private unnamed_addr constant [2 x i8] c"0\00", align 1
@.str.52 = private unnamed_addr constant [2 x i8] c"r\00", align 1

; Function Attrs: nounwind uwtable
define internal i32 @test_req_distinguishing_id() #0 {
  %1 = alloca ptr, align 8
  %2 = alloca ptr, align 8
  %3 = alloca i32, align 4
  %4 = alloca ptr, align 8
  %5 = alloca ptr, align 8
  %6 = alloca ptr, align 8
  call void @llvm.lifetime.start.p0(i64 8, ptr %1) #5
  store ptr null, ptr %1, align 8, !tbaa !23
  call void @llvm.lifetime.start.p0(i64 8, ptr %2) #5
  store ptr null, ptr %2, align 8, !tbaa !25
  call void @llvm.lifetime.start.p0(i64 4, ptr %3) #5
  store i32 0, ptr %3, align 4, !tbaa !9
  call void @llvm.lifetime.start.p0(i64 8, ptr %4) #5
  store ptr null, ptr %4, align 8, !tbaa !21
  call void @llvm.lifetime.start.p0(i64 8, ptr %5) #5
  store ptr null, ptr %5, align 8, !tbaa !21
  call void @llvm.lifetime.start.p0(i64 8, ptr %6) #5
  store ptr @.str.48, ptr %6, align 8, !tbaa !4
  %7 = load ptr, ptr @req_f, align 8, !tbaa !4
  %8 = call ptr @BIO_new_file(ptr noundef %7, ptr noundef @.str.52)
  store ptr %8, ptr %2, align 8, !tbaa !25
  %9 = load ptr, ptr %2, align 8, !tbaa !25
  %10 = icmp eq ptr %9, null
  br i1 %10, label %11, label %12

11:                                               ; preds = %0
  br label %49

12:                                               ; preds = %0
  %13 = load ptr, ptr %2, align 8, !tbaa !25
  %14 = call ptr @PEM_read_bio_X509_REQ(ptr noundef %13, ptr noundef null, ptr noundef null, ptr noundef null)
  store ptr %14, ptr %1, align 8, !tbaa !23
  %15 = load ptr, ptr %1, align 8, !tbaa !23
  %16 = icmp eq ptr %15, null
  br i1 %16, label %17, label %18

17:                                               ; preds = %12
  br label %49

18:                                               ; preds = %12
  %19 = call ptr @ASN1_OCTET_STRING_new()
  store ptr %19, ptr %4, align 8, !tbaa !21
  %20 = load ptr, ptr %4, align 8, !tbaa !21
  %21 = icmp eq ptr %20, null
  br i1 %21, label %22, label %23

22:                                               ; preds = %18
  br label %49

23:                                               ; preds = %18
  %24 = load ptr, ptr %4, align 8, !tbaa !21
  %25 = load ptr, ptr %6, align 8, !tbaa !4
  %26 = load ptr, ptr %6, align 8, !tbaa !4
  %27 = call i64 @strlen(ptr noundef %26) #6
  %28 = trunc i64 %27 to i32
  %29 = call i32 @ASN1_OCTET_STRING_set(ptr noundef %24, ptr noundef %25, i32 noundef %28)
  %30 = icmp ne i32 %29, 0
  br i1 %30, label %33, label %31

31:                                               ; preds = %23
  %32 = load ptr, ptr %4, align 8, !tbaa !21
  call void @ASN1_OCTET_STRING_free(ptr noundef %32)
  br label %49

33:                                               ; preds = %23
  %34 = load ptr, ptr %1, align 8, !tbaa !23
  %35 = load ptr, ptr %4, align 8, !tbaa !21
  call void @X509_REQ_set0_distinguishing_id(ptr noundef %34, ptr noundef %35)
  %36 = load ptr, ptr %1, align 8, !tbaa !23
  %37 = call ptr @X509_REQ_get0_distinguishing_id(ptr noundef %36)
  store ptr %37, ptr %5, align 8, !tbaa !21
  %38 = load ptr, ptr %5, align 8, !tbaa !21
  %39 = call i32 @test_ptr(ptr noundef @.str.14, i32 noundef 170, ptr noundef @.str.49, ptr noundef %38)
  %40 = icmp ne i32 %39, 0
  br i1 %40, label %41, label %47

41:                                               ; preds = %33
  %42 = load ptr, ptr %4, align 8, !tbaa !21
  %43 = load ptr, ptr %5, align 8, !tbaa !21
  %44 = call i32 @ASN1_OCTET_STRING_cmp(ptr noundef %42, ptr noundef %43)
  %45 = call i32 @test_int_eq(ptr noundef @.str.14, i32 noundef 171, ptr noundef @.str.50, ptr noundef @.str.51, i32 noundef %44, i32 noundef 0)
  %46 = icmp ne i32 %45, 0
  br i1 %46, label %48, label %47

47:                                               ; preds = %41, %33
  br label %49

48:                                               ; preds = %41
  store i32 1, ptr %3, align 4, !tbaa !9
  br label %49

49:                                               ; preds = %48, %47, %31, %22, %17, %11
  %50 = load ptr, ptr %1, align 8, !tbaa !23
  call void @X509_REQ_free(ptr noundef %50)
  %51 = load ptr, ptr %2, align 8, !tbaa !25
  %52 = call i32 @BIO_free(ptr noundef %51)
  %53 = load i32, ptr %3, align 4, !tbaa !9
  call void @llvm.lifetime.end.p0(i64 8, ptr %6) #5
  call void @llvm.lifetime.end.p0(i64 8, ptr %5) #5
  call void @llvm.lifetime.end.p0(i64 8, ptr %4) #5
  call void @llvm.lifetime.end.p0(i64 4, ptr %3) #5
  call void @llvm.lifetime.end.p0(i64 8, ptr %2) #5
  call void @llvm.lifetime.end.p0(i64 8, ptr %1) #5
  ret i32 %53
}