; Function Attrs: nounwind uwtable
define internal range(i32 0, 2) i32 @test_req_distinguishing_id() #1 {
  %1 = load ptr, ptr @req_f, align 8, !tbaa !4
  %2 = tail call ptr @BIO_new_file(ptr noundef %1, ptr noundef nonnull @.str.52) #3
  %3 = icmp eq ptr %2, null
  br i1 %3, label %19, label %4

4:                                                ; preds = %0
  %5 = tail call ptr @PEM_read_bio_X509_REQ(ptr noundef nonnull %2, ptr noundef null, ptr noundef null, ptr noundef null) #3
  %6 = icmp eq ptr %5, null
  br i1 %6, label %19, label %7

7:                                                ; preds = %4
  %8 = tail call ptr @ASN1_OCTET_STRING_new() #3
  %9 = icmp eq ptr %8, null
  br i1 %9, label %19, label %10

10:                                               ; preds = %7
  %11 = tail call i32 @ASN1_OCTET_STRING_set(ptr noundef nonnull %8, ptr noundef nonnull @.str.48, i32 noundef 13) #3
  %.not = icmp eq i32 %11, 0
  br i1 %.not, label %12, label %13

12:                                               ; preds = %10
  tail call void @ASN1_OCTET_STRING_free(ptr noundef nonnull %8) #3
  br label %19

13:                                               ; preds = %10
  tail call void @X509_REQ_set0_distinguishing_id(ptr noundef nonnull %5, ptr noundef nonnull %8) #3
  %14 = tail call ptr @X509_REQ_get0_distinguishing_id(ptr noundef nonnull %5) #3
  %15 = tail call i32 @test_ptr(ptr noundef nonnull @.str.14, i32 noundef 170, ptr noundef nonnull @.str.49, ptr noundef %14) #3
  %.not20 = icmp eq i32 %15, 0
  br i1 %.not20, label %19, label %16

16:                                               ; preds = %13
  %17 = tail call i32 @ASN1_OCTET_STRING_cmp(ptr noundef nonnull %8, ptr noundef %14) #3
  %18 = tail call i32 @test_int_eq(ptr noundef nonnull @.str.14, i32 noundef 171, ptr noundef nonnull @.str.50, ptr noundef nonnull @.str.51, i32 noundef %17, i32 noundef 0) #3
  %.not21 = icmp ne i32 %18, 0
  %spec.select = zext i1 %.not21 to i32
  br label %19

19:                                               ; preds = %16, %13, %7, %4, %0, %12
  %.016 = phi i32 [ 0, %0 ], [ 0, %4 ], [ 0, %7 ], [ 0, %13 ], [ 0, %12 ], [ %spec.select, %16 ]
  %.0 = phi ptr [ null, %0 ], [ null, %4 ], [ %5, %7 ], [ %5, %13 ], [ %5, %12 ], [ %5, %16 ]
  tail call void @X509_REQ_free(ptr noundef %.0) #3
  %20 = tail call i32 @BIO_free(ptr noundef %2) #3
  ret i32 %.016
}